target datalayout = "e-m:e-p270:32:32-p271:32:32-p272:64:64-i64:64-i128:128-f80:128-n8:16:32:64-S128"
target triple = "x86_64-pc-linux-gnu"

%struct._address = type { i32, i32, ptr, ptr }
%struct.reassembly_table_functions = type { ptr, ptr, ptr, ptr, ptr, ptr }
%struct.reassembly_table = type { ptr, ptr, ptr, ptr, ptr }

@.str.129 = private unnamed_addr constant [32 x i8] c"Licklider Transmission Protocol\00", align 1
@.str.130 = private unnamed_addr constant [4 x i8] c"LTP\00", align 1
@.str.131 = private unnamed_addr constant [4 x i8] c"ltp\00", align 1
@proto_ltp = internal global i32 0, align 4
@.str.132 = private unnamed_addr constant [17 x i8] c"analyze_sequence\00", align 1
@.str.133 = private unnamed_addr constant [26 x i8] c"Analyze segment sequences\00", align 1
@.str.134 = private unnamed_addr constant [110 x i8] c"Whether the dissector should analyze the sequencing and cross-references of the segments within each session.\00", align 1
@ltp_analyze_sequence = internal global i32 1, align 4
@.str.135 = private unnamed_addr constant [17 x i8] c"reassemble_block\00", align 1
@.str.136 = private unnamed_addr constant [26 x i8] c"Reassemble block segments\00", align 1
@.str.137 = private unnamed_addr constant [80 x i8] c"Whether the dissector should combine block segments together into a full block.\00", align 1
@ltp_reassemble_block = internal global i32 1, align 4
@ltp_handle = internal global ptr null, align 8
@ltp_addr_receiver = internal global %struct._address zeroinitializer, align 8
@.str.138 = private unnamed_addr constant [9 x i8] c"receiver\00", align 1
@ltp_tap = internal global i32 0, align 4
@proto_register_ltp.ltp_session_reassembly_table_functions = internal constant %struct.reassembly_table_functions { ptr @ltp_session_id_hash, ptr @ltp_session_id_equal, ptr @ltp_session_new_key, ptr @ltp_session_new_key, ptr @ltp_session_free_key, ptr @ltp_session_free_key }, align 8
@ltp_reassembly_table = internal global %struct.reassembly_table zeroinitializer, align 8

; Function Attrs: nounwind uwtable
define internal void @set_address(ptr noundef %0, i32 noundef %1, i32 noundef %2, ptr noundef %3) #0 {
  %5 = alloca ptr, align 8
  %6 = alloca i32, align 4
  %7 = alloca i32, align 4
  %8 = alloca ptr, align 8
  store ptr %0, ptr %5, align 8
  store i32 %1, ptr %6, align 4
  store i32 %2, ptr %7, align 4
  store ptr %3, ptr %8, align 8
  %9 = load i32, ptr %7, align 4
  %10 = icmp eq i32 %9, 0
  br i1 %10, label %11, label %14

11:                                               ; preds = %4
  br label %12

12:                                               ; preds = %11
  br label %13

13:                                               ; preds = %12
  br label %19

14:                                               ; preds = %4
  br label %15

15:                                               ; preds = %14
  br label %16

16:                                               ; preds = %15
  br label %17

17:                                               ; preds = %16
  br label %18

18:                                               ; preds = %17
  br label %19

19:                                               ; preds = %18, %13
  %20 = load i32, ptr %6, align 4
  %21 = load ptr, ptr %5, align 8
  %22 = getelementptr inbounds %struct._address, ptr %21, i32 0, i32 0
  store i32 %20, ptr %22, align 8
  %23 = load i32, ptr %7, align 4
  %24 = load ptr, ptr %5, align 8
  %25 = getelementptr inbounds %struct._address, ptr %24, i32 0, i32 1
  store i32 %23, ptr %25, align 4
  %26 = load ptr, ptr %8, align 8
  %27 = load ptr, ptr %5, align 8
  %28 = getelementptr inbounds %struct._address, ptr %27, i32 0, i32 2
  store ptr %26, ptr %28, align 8
  %29 = load ptr, ptr %5, align 8
  %30 = getelementptr inbounds %struct._address, ptr %29, i32 0, i32 3
  store ptr null, ptr %30, align 8
  ret void
}

; Function Attrs: nounwind uwtable
define hidden void @proto_register_ltp() #0 {
  %1 = alloca ptr, align 8
  %2 = alloca ptr, align 8
  %3 = call i32 @proto_register_protocol(ptr noundef @.str.129, ptr noundef @.str.130, ptr noundef @.str.131)
  store i32 %3, ptr @proto_ltp, align 4
  %4 = load i32, ptr @proto_ltp, align 4
  %5 = call ptr @prefs_register_protocol(i32 noundef %4, ptr noundef null)
  store ptr %5, ptr %2, align 8
  %6 = load ptr, ptr %2, align 8
  call void @prefs_register_bool_preference(ptr noundef %6, ptr noundef @.str.132, ptr noundef @.str.133, ptr noundef @.str.134, ptr noundef @ltp_analyze_sequence)
  %7 = load ptr, ptr %2, align 8
  call void @prefs_register_bool_preference(ptr noundef %7, ptr noundef @.str.135, ptr noundef @.str.136, ptr noundef @.str.137, ptr noundef @ltp_reassemble_block)
  %8 = load i32, ptr @proto_ltp, align 4
  call void @proto_register_field_array(i32 noundef %8, ptr noundef @proto_register_ltp.hf, i32 noundef 65)
  call void @proto_register_subtree_array(ptr noundef @proto_register_ltp.ett, i32 noundef 15)
  %9 = load i32, ptr @proto_ltp, align 4
  %10 = call ptr @expert_register_protocol(i32 noundef %9)
  store ptr %10, ptr %1, align 8
  %11 = load ptr, ptr %1, align 8
  call void @expert_register_field_array(ptr noundef %11, ptr noundef @proto_register_ltp.ei, i32 noundef 4)
  %12 = load i32, ptr @proto_ltp, align 4
  %13 = call ptr @register_dissector(ptr noundef @.str.131, ptr noundef @dissect_ltp, i32 noundef %12)
  store ptr %13, ptr @ltp_handle, align 8
  call void @set_address(ptr noundef @ltp_addr_receiver, i32 noundef 7, i32 noundef 9, ptr noundef @.str.138)
  %14 = load i32, ptr @proto_ltp, align 4
  call void @register_conversation_table(i32 noundef %14, i32 noundef 1, ptr noundef @ltp_conv_packet, ptr noundef @ltp_endp_packet)
  call void @register_conversation_filter(ptr noundef @.str.131, ptr noundef @.str.130, ptr noundef @ltp_filter_valid, ptr noundef @ltp_build_filter, ptr noundef null)
  %15 = call i32 @register_tap(ptr noundef @.str.131)
  store i32 %15, ptr @ltp_tap, align 4
  call void @reassembly_table_register(ptr noundef @ltp_reassembly_table, ptr noundef @proto_register_ltp.ltp_session_reassembly_table_functions)
  ret void
}