; Function Attrs: nounwind uwtable
define hidden void @proto_register_ltp() local_unnamed_addr #0 {
  %1 = tail call i32 @proto_register_protocol(ptr noundef nonnull @.str.129, ptr noundef nonnull @.str.130, ptr noundef nonnull @.str.131) #8
  store i32 %1, ptr @proto_ltp, align 4
  %2 = tail call ptr @prefs_register_protocol(i32 noundef %1, ptr noundef null) #8
  tail call void @prefs_register_bool_preference(ptr noundef %2, ptr noundef nonnull @.str.132, ptr noundef nonnull @.str.133, ptr noundef nonnull @.str.134, ptr noundef nonnull @ltp_analyze_sequence) #8
  tail call void @prefs_register_bool_preference(ptr noundef %2, ptr noundef nonnull @.str.135, ptr noundef nonnull @.str.136, ptr noundef nonnull @.str.137, ptr noundef nonnull @ltp_reassemble_block) #8
  %3 = load i32, ptr @proto_ltp, align 4
  tail call void @proto_register_field_array(i32 noundef %3, ptr noundef nonnull @proto_register_ltp.hf, i32 noundef 65) #8
  tail call void @proto_register_subtree_array(ptr noundef nonnull @proto_register_ltp.ett, i32 noundef 15) #8
  %4 = load i32, ptr @proto_ltp, align 4
  %5 = tail call ptr @expert_register_protocol(i32 noundef %4) #8
  tail call void @expert_register_field_array(ptr noundef %5, ptr noundef nonnull @proto_register_ltp.ei, i32 noundef 4) #8
  %6 = load i32, ptr @proto_ltp, align 4
  %7 = tail call ptr @register_dissector(ptr noundef nonnull @.str.131, ptr noundef nonnull @dissect_ltp, i32 noundef %6) #8
  store ptr %7, ptr @ltp_handle, align 8
  store i1 true, ptr @ltp_addr_receiver.0, align 8
  store i1 true, ptr @ltp_addr_receiver.1, align 4
  store ptr @.str.138, ptr @ltp_addr_receiver.2, align 8
  %8 = load i32, ptr @proto_ltp, align 4
  tail call void @register_conversation_table(i32 noundef %8, i32 noundef 1, ptr noundef nonnull @ltp_conv_packet, ptr noundef nonnull @ltp_endp_packet) #8
  tail call void @register_conversation_filter(ptr noundef nonnull @.str.131, ptr noundef nonnull @.str.130, ptr noundef nonnull @ltp_filter_valid, ptr noundef nonnull @ltp_build_filter, ptr noundef null) #8
  %9 = tail call i32 @register_tap(ptr noundef nonnull @.str.131) #8
  store i32 %9, ptr @ltp_tap, align 4
  tail call void @reassembly_table_register(ptr noundef nonnull @ltp_reassembly_table, ptr noundef nonnull @proto_register_ltp.ltp_session_reassembly_table_functions) #8
  ret void
}